; Function Attrs: nounwind uwtable
define dso_local void @Curl_doh_cleanup(ptr noundef captures(none) %0) local_unnamed_addr #0 {
  %2 = alloca ptr, align 8
  %3 = getelementptr inbounds nuw i8, ptr %0, i64 440
  %4 = load ptr, ptr %3, align 8, !tbaa !79
  %.not = icmp eq ptr %4, null
  br i1 %.not, label %28, label %5

5:                                                ; preds = %1
  %6 = getelementptr inbounds nuw i8, ptr %0, i64 208
  %7 = load ptr, ptr %6, align 8, !tbaa !87
  %.not17.i = icmp eq ptr %7, null
  br i1 %.not17.i, label %Curl_doh_close.exit, label %8

8:                                                ; preds = %5
  call void @llvm.lifetime.start.p0(i64 8, ptr nonnull %2) #8
  %9 = getelementptr inbounds nuw i8, ptr %4, i64 8
  br label %10

10:                                               ; preds = %23, %8
  %11 = phi i1 [ true, %8 ], [ false, %23 ]
  %.021.i = phi i64 [ 0, %8 ], [ 1, %23 ]
  %12 = getelementptr inbounds nuw [2 x %struct.doh_probe], ptr %9, i64 0, i64 %.021.i
  %13 = load i64, ptr %12, align 8, !tbaa !80
  %14 = icmp slt i64 %13, 0
  br i1 %14, label %23, label %15

15:                                               ; preds = %10
  store i64 -1, ptr %12, align 8, !tbaa !80
  %16 = load ptr, ptr %6, align 8, !tbaa !87
  %.not18.i = icmp eq ptr %16, null
  br i1 %.not18.i, label %.thread.i, label %17

.thread.i:                                        ; preds = %15
  store ptr null, ptr %2, align 8, !tbaa !98
  br label %23

17:                                               ; preds = %15
  %18 = call ptr @Curl_multi_get_handle(ptr noundef nonnull %16, i64 noundef %13) #8
  store ptr %18, ptr %2, align 8, !tbaa !98
  %.not19.i = icmp eq ptr %18, null
  br i1 %.not19.i, label %23, label %19

19:                                               ; preds = %17
  %20 = load ptr, ptr %6, align 8, !tbaa !87
  %21 = call i32 @curl_multi_remove_handle(ptr noundef %20, ptr noundef nonnull %18) #8
  %22 = call i32 @Curl_close(ptr noundef nonnull %2) #8
  br label %23

23:                                               ; preds = %19, %17, %.thread.i, %10
  br i1 %11, label %10, label %24, !llvm.loop !118

24:                                               ; preds = %23
  call void @llvm.lifetime.end.p0(i64 8, ptr nonnull %2) #8
  br label %Curl_doh_close.exit

Curl_doh_close.exit:                              ; preds = %5, %24
  %25 = load ptr, ptr %4, align 8, !tbaa !85
  call void @curl_slist_free_all(ptr noundef %25) #8
  %26 = load ptr, ptr %3, align 8, !tbaa !79
  store ptr null, ptr %26, align 8, !tbaa !85
  %27 = load ptr, ptr @Curl_cfree, align 8, !tbaa !78
  call void %27(ptr noundef nonnull %26) #8
  store ptr null, ptr %3, align 8, !tbaa !79
  br label %28

28:                                               ; preds = %Curl_doh_close.exit, %1
  ret void
}